; ModuleID = '57/674.c'
source_filename = "57/674.c"
target datalayout = "e-m:e-p270:32:32-p271:32:32-p272:64:64-i64:64-f80:128-n8:16:32:64-S128"
target triple = "x86_64-pc-linux-gnu"

@.str = private unnamed_addr constant [4 x i8] c"%d\0A\00", align 1
@.str.1 = private unnamed_addr constant [3 x i8] c"%c\00", align 1
@.str.2 = private unnamed_addr constant [4 x i8] c"%c\0A\00", align 1

; Function Attrs: noinline nounwind uwtable
define dso_local i32 @main() #0 {
  %1 = alloca i32, align 4
  %2 = alloca [51 x [33 x i8]], align 16
  %3 = alloca i32, align 4
  %4 = alloca [51 x i32], align 16
  %5 = alloca i32, align 4
  %6 = alloca i32, align 4
  %7 = alloca i32, align 4
  store i32 0, i32* %1, align 4
  %8 = call i32 (i8*, ...) @__isoc99_scanf(i8* getelementptr inbounds ([4 x i8], [4 x i8]* @.str, i64 0, i64 0), i32* %3)
  store i32 0, i32* %5, align 4
  br label %9

9:                                                ; preds = %28, %0
  %10 = load i32, i32* %5, align 4
  %11 = load i32, i32* %3, align 4
  %12 = icmp slt i32 %10, %11
  br i1 %12, label %13, label %31

13:                                               ; preds = %9
  %14 = load i32, i32* %5, align 4
  %15 = sext i32 %14 to i64
  %16 = getelementptr inbounds [51 x [33 x i8]], [51 x [33 x i8]]* %2, i64 0, i64 %15
  %17 = getelementptr inbounds [33 x i8], [33 x i8]* %16, i64 0, i64 0
  %18 = call i32 (i8*, ...) bitcast (i32 (...)* @gets to i32 (i8*, ...)*)(i8* %17)
  %19 = load i32, i32* %5, align 4
  %20 = sext i32 %19 to i64
  %21 = getelementptr inbounds [51 x [33 x i8]], [51 x [33 x i8]]* %2, i64 0, i64 %20
  %22 = getelementptr inbounds [33 x i8], [33 x i8]* %21, i64 0, i64 0
  %23 = call i64 @strlen(i8* %22) #3
  %24 = trunc i64 %23 to i32
  %25 = load i32, i32* %5, align 4
  %26 = sext i32 %25 to i64
  %27 = getelementptr inbounds [51 x i32], [51 x i32]* %4, i64 0, i64 %26
  store i32 %24, i32* %27, align 4
  br label %28

28:                                               ; preds = %13
  %29 = load i32, i32* %5, align 4
  %30 = add nsw i32 %29, 1
  store i32 %30, i32* %5, align 4
  br label %9

31:                                               ; preds = %9
  store i32 0, i32* %5, align 4
  br label %32

32:                                               ; preds = %156, %31
  %33 = load i32, i32* %5, align 4
  %34 = load i32, i32* %3, align 4
  %35 = icmp slt i32 %33, %34
  br i1 %35, label %36, label %159

36:                                               ; preds = %32
  %37 = load i32, i32* %5, align 4
  %38 = sext i32 %37 to i64
  %39 = getelementptr inbounds [51 x i32], [51 x i32]* %4, i64 0, i64 %38
  %40 = load i32, i32* %39, align 4
  store i32 %40, i32* %7, align 4
  %41 = load i32, i32* %5, align 4
  %42 = sext i32 %41 to i64
  %43 = getelementptr inbounds [51 x [33 x i8]], [51 x [33 x i8]]* %2, i64 0, i64 %42
  %44 = load i32, i32* %7, align 4
  %45 = sub nsw i32 %44, 3
  %46 = sext i32 %45 to i64
  %47 = getelementptr inbounds [33 x i8], [33 x i8]* %43, i64 0, i64 %46
  %48 = load i8, i8* %47, align 1
  %49 = sext i8 %48 to i32
  %50 = icmp eq i32 %49, 105
  br i1 %50, label %51, label %76

51:                                               ; preds = %36
  %52 = load i32, i32* %5, align 4
  %53 = sext i32 %52 to i64
  %54 = getelementptr inbounds [51 x [33 x i8]], [51 x [33 x i8]]* %2, i64 0, i64 %53
  %55 = load i32, i32* %7, align 4
  %56 = sub nsw i32 %55, 2
  %57 = sext i32 %56 to i64
  %58 = getelementptr inbounds [33 x i8], [33 x i8]* %54, i64 0, i64 %57
  %59 = load i8, i8* %58, align 1
  %60 = sext i8 %59 to i32
  %61 = icmp eq i32 %60, 110
  br i1 %61, label %62, label %76

62:                                               ; preds = %51
  %63 = load i32, i32* %5, align 4
  %64 = sext i32 %63 to i64
  %65 = getelementptr inbounds [51 x [33 x i8]], [51 x [33 x i8]]* %2, i64 0, i64 %64
  %66 = load i32, i32* %7, align 4
  %67 = sub nsw i32 %66, 1
  %68 = sext i32 %67 to i64
  %69 = getelementptr inbounds [33 x i8], [33 x i8]* %65, i64 0, i64 %68
  %70 = load i8, i8* %69, align 1
  %71 = sext i8 %70 to i32
  %72 = icmp eq i32 %71, 103
  br i1 %72, label %73, label %76

73:                                               ; preds = %62
  %74 = load i32, i32* %7, align 4
  %75 = sub nsw i32 %74, 3
  store i32 %75, i32* %7, align 4
  br label %76

76:                                               ; preds = %73, %62, %51, %36
  %77 = load i32, i32* %5, align 4
  %78 = sext i32 %77 to i64
  %79 = getelementptr inbounds [51 x [33 x i8]], [51 x [33 x i8]]* %2, i64 0, i64 %78
  %80 = load i32, i32* %7, align 4
  %81 = sub nsw i32 %80, 2
  %82 = sext i32 %81 to i64
  %83 = getelementptr inbounds [33 x i8], [33 x i8]* %79, i64 0, i64 %82
  %84 = load i8, i8* %83, align 1
  %85 = sext i8 %84 to i32
  %86 = icmp eq i32 %85, 101
  br i1 %86, label %87, label %101

87:                                               ; preds = %76
  %88 = load i32, i32* %5, align 4
  %89 = sext i32 %88 to i64
  %90 = getelementptr inbounds [51 x [33 x i8]], [51 x [33 x i8]]* %2, i64 0, i64 %89
  %91 = load i32, i32* %7, align 4
  %92 = sub nsw i32 %91, 1
  %93 = sext i32 %92 to i64
  %94 = getelementptr inbounds [33 x i8], [33 x i8]* %90, i64 0, i64 %93
  %95 = load i8, i8* %94, align 1
  %96 = sext i8 %95 to i32
  %97 = icmp eq i32 %96, 114
  br i1 %97, label %98, label %101

98:                                               ; preds = %87
  %99 = load i32, i32* %7, align 4
  %100 = sub nsw i32 %99, 2
  store i32 %100, i32* %7, align 4
  br label %101

101:                                              ; preds = %98, %87, %76
  %102 = load i32, i32* %5, align 4
  %103 = sext i32 %102 to i64
  %104 = getelementptr inbounds [51 x [33 x i8]], [51 x [33 x i8]]* %2, i64 0, i64 %103
  %105 = load i32, i32* %7, align 4
  %106 = sub nsw i32 %105, 2
  %107 = sext i32 %106 to i64
  %108 = getelementptr inbounds [33 x i8], [33 x i8]* %104, i64 0, i64 %107
  %109 = load i8, i8* %108, align 1
  %110 = sext i8 %109 to i32
  %111 = icmp eq i32 %110, 108
  br i1 %111, label %112, label %126

112:                                              ; preds = %101
  %113 = load i32, i32* %5, align 4
  %114 = sext i32 %113 to i64
  %115 = getelementptr inbounds [51 x [33 x i8]], [51 x [33 x i8]]* %2, i64 0, i64 %114
  %116 = load i32, i32* %7, align 4
  %117 = sub nsw i32 %116, 1
  %118 = sext i32 %117 to i64
  %119 = getelementptr inbounds [33 x i8], [33 x i8]* %115, i64 0, i64 %118
  %120 = load i8, i8* %119, align 1
  %121 = sext i8 %120 to i32
  %122 = icmp eq i32 %121, 121
  br i1 %122, label %123, label %126

123:                                              ; preds = %112
  %124 = load i32, i32* %7, align 4
  %125 = sub nsw i32 %124, 2
  store i32 %125, i32* %7, align 4
  br label %126

126:                                              ; preds = %123, %112, %101
  store i32 0, i32* %6, align 4
  br label %127

127:                                              ; preds = %142, %126
  %128 = load i32, i32* %6, align 4
  %129 = load i32, i32* %7, align 4
  %130 = sub nsw i32 %129, 1
  %131 = icmp slt i32 %128, %130
  br i1 %131, label %132, label %145

132:                                              ; preds = %127
  %133 = load i32, i32* %5, align 4
  %134 = sext i32 %133 to i64
  %135 = getelementptr inbounds [51 x [33 x i8]], [51 x [33 x i8]]* %2, i64 0, i64 %134
  %136 = load i32, i32* %6, align 4
  %137 = sext i32 %136 to i64
  %138 = getelementptr inbounds [33 x i8], [33 x i8]* %135, i64 0, i64 %137
  %139 = load i8, i8* %138, align 1
  %140 = sext i8 %139 to i32
  %141 = call i32 (i8*, ...) @printf(i8* getelementptr inbounds ([3 x i8], [3 x i8]* @.str.1, i64 0, i64 0), i32 %140)
  br label %142

142:                                              ; preds = %132
  %143 = load i32, i32* %6, align 4
  %144 = add nsw i32 %143, 1
  store i32 %144, i32* %6, align 4
  br label %127

145:                                              ; preds = %127
  %146 = load i32, i32* %5, align 4
  %147 = sext i32 %146 to i64
  %148 = getelementptr inbounds [51 x [33 x i8]], [51 x [33 x i8]]* %2, i64 0, i64 %147
  %149 = load i32, i32* %7, align 4
  %150 = sub nsw i32 %149, 1
  %151 = sext i32 %150 to i64
  %152 = getelementptr inbounds [33 x i8], [33 x i8]* %148, i64 0, i64 %151
  %153 = load i8, i8* %152, align 1
  %154 = sext i8 %153 to i32
  %155 = call i32 (i8*, ...) @printf(i8* getelementptr inbounds ([4 x i8], [4 x i8]* @.str.2, i64 0, i64 0), i32 %154)
  br label %156

156:                                              ; preds = %145
  %157 = load i32, i32* %5, align 4
  %158 = add nsw i32 %157, 1
  store i32 %158, i32* %5, align 4
  br label %32

159:                                              ; preds = %32
  ret i32 0
}

declare dso_local i32 @__isoc99_scanf(i8*, ...) #1

declare dso_local i32 @gets(...) #1

; Function Attrs: nounwind readonly
declare dso_local i64 @strlen(i8*) #2

declare dso_local i32 @printf(i8*, ...) #1


!llvm.module.flags = !{!0}
!llvm.ident = !{!1}

!0 = !{i32 1, !"wchar_size", i32 4}
!1 = !{!"clang version 10.0.0-4ubuntu1 "}
